target datalayout = "e-m:e-p270:32:32-p271:32:32-p272:64:64-i64:64-i128:128-f80:128-n8:16:32:64-S128"
target triple = "x86_64-pc-linux-gnu"

%struct.WebPRescaler = type { i32, i32, i32, i32, i32, i32, i32, i32, i32, i32, i32, i32, i32, i32, i32, i32, i32, ptr, i32, ptr, ptr }

; Function Attrs: nounwind uwtable
define internal i32 @WebPRescalerOutputDone(ptr noundef %0) #0 {
  %2 = alloca ptr, align 8
  store ptr %0, ptr %2, align 8
  %3 = load ptr, ptr %2, align 8
  %4 = getelementptr inbounds %struct.WebPRescaler, ptr %3, i32 0, i32 16
  %5 = load i32, ptr %4, align 8
  %6 = load ptr, ptr %2, align 8
  %7 = getelementptr inbounds %struct.WebPRescaler, ptr %6, i32 0, i32 14
  %8 = load i32, ptr %7, align 8
  %9 = icmp sge i32 %5, %8
  %10 = zext i1 %9 to i32
  ret i32 %10
}

; Function Attrs: nounwind uwtable
define internal i32 @WebPRescalerHasPendingOutput(ptr noundef %0) #0 {
  %2 = alloca ptr, align 8
  store ptr %0, ptr %2, align 8
  %3 = load ptr, ptr %2, align 8
  %4 = call i32 @WebPRescalerOutputDone(ptr noundef %3)
  %5 = icmp ne i32 %4, 0
  br i1 %5, label %11, label %6

6:                                                ; preds = %1
  %7 = load ptr, ptr %2, align 8
  %8 = getelementptr inbounds %struct.WebPRescaler, ptr %7, i32 0, i32 6
  %9 = load i32, ptr %8, align 8
  %10 = icmp sle i32 %9, 0
  br label %11

11:                                               ; preds = %6, %1
  %12 = phi i1 [ false, %1 ], [ %10, %6 ]
  %13 = zext i1 %12 to i32
  ret i32 %13
}

; Function Attrs: nounwind uwtable
define hidden i32 @WebPRescalerImport(ptr noundef %0, i32 noundef %1, ptr noundef %2, i32 noundef %3) #0 {
  %5 = alloca ptr, align 8
  %6 = alloca i32, align 4
  %7 = alloca ptr, align 8
  %8 = alloca i32, align 4
  %9 = alloca i32, align 4
  %10 = alloca ptr, align 8
  %11 = alloca i32, align 4
  store ptr %0, ptr %5, align 8
  store i32 %1, ptr %6, align 4
  store ptr %2, ptr %7, align 8
  store i32 %3, ptr %8, align 4
  store i32 0, ptr %9, align 4
  br label %12

12:                                               ; preds = %78, %4
  %13 = load i32, ptr %9, align 4
  %14 = load i32, ptr %6, align 4
  %15 = icmp slt i32 %13, %14
  br i1 %15, label %16, label %21

16:                                               ; preds = %12
  %17 = load ptr, ptr %5, align 8
  %18 = call i32 @WebPRescalerHasPendingOutput(ptr noundef %17)
  %19 = icmp ne i32 %18, 0
  %20 = xor i1 %19, true
  br label %21

21:                                               ; preds = %16, %12
  %22 = phi i1 [ false, %12 ], [ %20, %16 ]
  br i1 %22, label %23, label %96

23:                                               ; preds = %21
  %24 = load ptr, ptr %5, align 8
  %25 = getelementptr inbounds %struct.WebPRescaler, ptr %24, i32 0, i32 1
  %26 = load i32, ptr %25, align 4
  %27 = icmp ne i32 %26, 0
  br i1 %27, label %28, label %40

28:                                               ; preds = %23
  %29 = load ptr, ptr %5, align 8
  %30 = getelementptr inbounds %struct.WebPRescaler, ptr %29, i32 0, i32 19
  %31 = load ptr, ptr %30, align 8
  store ptr %31, ptr %10, align 8
  %32 = load ptr, ptr %5, align 8
  %33 = getelementptr inbounds %struct.WebPRescaler, ptr %32, i32 0, i32 20
  %34 = load ptr, ptr %33, align 8
  %35 = load ptr, ptr %5, align 8
  %36 = getelementptr inbounds %struct.WebPRescaler, ptr %35, i32 0, i32 19
  store ptr %34, ptr %36, align 8
  %37 = load ptr, ptr %10, align 8
  %38 = load ptr, ptr %5, align 8
  %39 = getelementptr inbounds %struct.WebPRescaler, ptr %38, i32 0, i32 20
  store ptr %37, ptr %39, align 8
  br label %40

40:                                               ; preds = %28, %23
  %41 = load ptr, ptr %5, align 8
  %42 = load ptr, ptr %7, align 8
  call void @WebPRescalerImportRow(ptr noundef %41, ptr noundef %42)
  %43 = load ptr, ptr %5, align 8
  %44 = getelementptr inbounds %struct.WebPRescaler, ptr %43, i32 0, i32 1
  %45 = load i32, ptr %44, align 4
  %46 = icmp ne i32 %45, 0
  br i1 %46, label %78, label %47

47:                                               ; preds = %40
  store i32 0, ptr %11, align 4
  br label %48

48:                                               ; preds = %74, %47
  %49 = load i32, ptr %11, align 4
  %50 = load ptr, ptr %5, align 8
  %51 = getelementptr inbounds %struct.WebPRescaler, ptr %50, i32 0, i32 2
  %52 = load i32, ptr %51, align 8
  %53 = load ptr, ptr %5, align 8
  %54 = getelementptr inbounds %struct.WebPRescaler, ptr %53, i32 0, i32 13
  %55 = load i32, ptr %54, align 4
  %56 = mul nsw i32 %52, %55
  %57 = icmp slt i32 %49, %56
  br i1 %57, label %58, label %77

58:                                               ; preds = %48
  %59 = load ptr, ptr %5, align 8
  %60 = getelementptr inbounds %struct.WebPRescaler, ptr %59, i32 0, i32 20
  %61 = load ptr, ptr %60, align 8
  %62 = load i32, ptr %11, align 4
  %63 = sext i32 %62 to i64
  %64 = getelementptr inbounds i32, ptr %61, i64 %63
  %65 = load i32, ptr %64, align 4
  %66 = load ptr, ptr %5, align 8
  %67 = getelementptr inbounds %struct.WebPRescaler, ptr %66, i32 0, i32 19
  %68 = load ptr, ptr %67, align 8
  %69 = load i32, ptr %11, align 4
  %70 = sext i32 %69 to i64
  %71 = getelementptr inbounds i32, ptr %68, i64 %70
  %72 = load i32, ptr %71, align 4
  %73 = add i32 %72, %65
  store i32 %73, ptr %71, align 4
  br label %74

74:                                               ; preds = %58
  %75 = load i32, ptr %11, align 4
  %76 = add nsw i32 %75, 1
  store i32 %76, ptr %11, align 4
  br label %48, !llvm.loop !4

77:                                               ; preds = %48
  br label %78

78:                                               ; preds = %77, %40
  %79 = load ptr, ptr %5, align 8
  %80 = getelementptr inbounds %struct.WebPRescaler, ptr %79, i32 0, i32 15
  %81 = load i32, ptr %80, align 4
  %82 = add nsw i32 %81, 1
  store i32 %82, ptr %80, align 4
  %83 = load i32, ptr %8, align 4
  %84 = load ptr, ptr %7, align 8
  %85 = sext i32 %83 to i64
  %86 = getelementptr inbounds i8, ptr %84, i64 %85
  store ptr %86, ptr %7, align 8
  %87 = load i32, ptr %9, align 4
  %88 = add nsw i32 %87, 1
  store i32 %88, ptr %9, align 4
  %89 = load ptr, ptr %5, align 8
  %90 = getelementptr inbounds %struct.WebPRescaler, ptr %89, i32 0, i32 8
  %91 = load i32, ptr %90, align 8
  %92 = load ptr, ptr %5, align 8
  %93 = getelementptr inbounds %struct.WebPRescaler, ptr %92, i32 0, i32 6
  %94 = load i32, ptr %93, align 8
  %95 = sub nsw i32 %94, %91
  store i32 %95, ptr %93, align 8
  br label %12, !llvm.loop !6

96:                                               ; preds = %21
  %97 = load i32, ptr %9, align 4
  ret i32 %97
}