; Function Attrs: nounwind uwtable
define hidden i32 @WebPRescalerImport(ptr noundef %0, i32 noundef %1, ptr noundef %2, i32 noundef %3) local_unnamed_addr #0 {
  %5 = getelementptr inbounds i8, ptr %0, i64 24
  %6 = icmp sgt i32 %1, 0
  br i1 %6, label %.lr.ph34, label %.critedge

.lr.ph34:                                         ; preds = %4
  %7 = getelementptr i8, ptr %0, i64 56
  %8 = getelementptr i8, ptr %0, i64 64
  %9 = getelementptr inbounds i8, ptr %0, i64 4
  %10 = getelementptr inbounds i8, ptr %0, i64 88
  %11 = getelementptr inbounds i8, ptr %0, i64 96
  %12 = getelementptr inbounds i8, ptr %0, i64 8
  %13 = getelementptr inbounds i8, ptr %0, i64 52
  %14 = getelementptr inbounds i8, ptr %0, i64 60
  %15 = sext i32 %3 to i64
  %16 = getelementptr inbounds i8, ptr %0, i64 32
  br label %17

17:                                               ; preds = %.lr.ph34, %.loopexit
  %.02633 = phi ptr [ %2, %.lr.ph34 ], [ %44, %.loopexit ]
  %.02732 = phi i32 [ 0, %.lr.ph34 ], [ %45, %.loopexit ]
  %.val.i = load i32, ptr %7, align 8
  %.val2.i = load i32, ptr %8, align 8
  %.not3.i = icmp slt i32 %.val2.i, %.val.i
  br i1 %.not3.i, label %WebPRescalerHasPendingOutput.exit, label %WebPRescalerHasPendingOutput.exit.thread

WebPRescalerHasPendingOutput.exit:                ; preds = %17
  %18 = load i32, ptr %5, align 8
  %19 = icmp sgt i32 %18, 0
  br i1 %19, label %WebPRescalerHasPendingOutput.exit.thread, label %.critedge

WebPRescalerHasPendingOutput.exit.thread:         ; preds = %17, %WebPRescalerHasPendingOutput.exit
  %20 = load i32, ptr %9, align 4
  %.not28 = icmp eq i32 %20, 0
  br i1 %.not28, label %24, label %21

21:                                               ; preds = %WebPRescalerHasPendingOutput.exit.thread
  %22 = load <2 x ptr>, ptr %10, align 8
  %23 = shufflevector <2 x ptr> %22, <2 x ptr> poison, <2 x i32> <i32 1, i32 0>
  store <2 x ptr> %23, ptr %10, align 8
  br label %24

24:                                               ; preds = %21, %WebPRescalerHasPendingOutput.exit.thread
  tail call void @WebPRescalerImportRow(ptr noundef nonnull %0, ptr noundef %.02633) #6
  %25 = load i32, ptr %9, align 4
  %.not29 = icmp eq i32 %25, 0
  br i1 %.not29, label %.preheader, label %.loopexit

.preheader:                                       ; preds = %24
  %26 = load i32, ptr %12, align 8
  %27 = load i32, ptr %13, align 4
  %28 = mul nsw i32 %27, %26
  %29 = icmp sgt i32 %28, 0
  br i1 %29, label %.lr.ph, label %.loopexit

.lr.ph:                                           ; preds = %.preheader, %.lr.ph
  %indvars.iv = phi i64 [ %indvars.iv.next, %.lr.ph ], [ 0, %.preheader ]
  %30 = load ptr, ptr %11, align 8
  %31 = getelementptr inbounds i32, ptr %30, i64 %indvars.iv
  %32 = load i32, ptr %31, align 4
  %33 = load ptr, ptr %10, align 8
  %34 = getelementptr inbounds i32, ptr %33, i64 %indvars.iv
  %35 = load i32, ptr %34, align 4
  %36 = add i32 %35, %32
  store i32 %36, ptr %34, align 4
  %indvars.iv.next = add nuw nsw i64 %indvars.iv, 1
  %37 = load i32, ptr %12, align 8
  %38 = load i32, ptr %13, align 4
  %39 = mul nsw i32 %38, %37
  %40 = sext i32 %39 to i64
  %41 = icmp slt i64 %indvars.iv.next, %40
  br i1 %41, label %.lr.ph, label %.loopexit, !llvm.loop !4

.loopexit:                                        ; preds = %.lr.ph, %.preheader, %24
  %42 = load i32, ptr %14, align 4
  %43 = add nsw i32 %42, 1
  store i32 %43, ptr %14, align 4
  %44 = getelementptr inbounds i8, ptr %.02633, i64 %15
  %45 = add nuw nsw i32 %.02732, 1
  %46 = load i32, ptr %16, align 8
  %47 = load i32, ptr %5, align 8
  %48 = sub nsw i32 %47, %46
  store i32 %48, ptr %5, align 8
  %exitcond.not = icmp eq i32 %45, %1
  br i1 %exitcond.not, label %.critedge, label %17, !llvm.loop !6

.critedge:                                        ; preds = %WebPRescalerHasPendingOutput.exit, %.loopexit, %4
  %.027.lcssa = phi i32 [ 0, %4 ], [ %1, %.loopexit ], [ %.02732, %WebPRescalerHasPendingOutput.exit ]
  ret i32 %.027.lcssa
}